target datalayout = "e-m:e-p270:32:32-p271:32:32-p272:64:64-i64:64-i128:128-f80:128-n8:16:32:64-S128"
target triple = "x86_64-unknown-linux-gnu"

%"struct.eastl::VectorBase.203" = type { ptr, ptr, %"class.eastl::compressed_pair.204" }
%"class.eastl::compressed_pair.204" = type { %"class.eastl::compressed_pair_imp.205" }
%"class.eastl::compressed_pair_imp.205" = type { ptr, %class.MallocAllocator }
%class.MallocAllocator = type { i32, i32, i64 }
%"struct.eastl::ContainerTemporary.280" = type { ptr, ptr }

; Function Attrs: mustprogress nounwind uwtable
define linkonce_odr dso_local noundef nonnull align 8 dereferenceable(8) ptr @_ZN5eastl19compressed_pair_impIPi15MallocAllocatorLi0EE5firstEv(ptr noundef nonnull align 8 dereferenceable(24) %this) #1 comdat align 2 {
entry:
  %this.addr = alloca ptr, align 8
  store ptr %this, ptr %this.addr, align 8
  %this1 = load ptr, ptr %this.addr, align 8
  %mFirst = getelementptr inbounds %"class.eastl::compressed_pair_imp.205", ptr %this1, i32 0, i32 0
  ret ptr %mFirst
}

; Function Attrs: mustprogress nounwind uwtable
define linkonce_odr dso_local noundef nonnull align 8 dereferenceable(16) ptr @_ZN5eastl19compressed_pair_impIPi15MallocAllocatorLi0EE6secondEv(ptr noundef nonnull align 8 dereferenceable(24) %this) #1 comdat align 2 {
entry:
  %this.addr = alloca ptr, align 8
  store ptr %this, ptr %this.addr, align 8
  %this1 = load ptr, ptr %this.addr, align 8
  %mSecond = getelementptr inbounds %"class.eastl::compressed_pair_imp.205", ptr %this1, i32 0, i32 1
  ret ptr %mSecond
}

; Function Attrs: mustprogress uwtable
define linkonce_odr dso_local noundef nonnull align 8 dereferenceable(8) ptr @_ZN5eastl15compressed_pairIPi15MallocAllocatorE5firstEv(ptr noundef nonnull align 8 dereferenceable(24) %this) #0 comdat align 2 {
entry:
  %this.addr = alloca ptr, align 8
  store ptr %this, ptr %this.addr, align 8
  %this1 = load ptr, ptr %this.addr, align 8
  %call = call noundef nonnull align 8 dereferenceable(8) ptr @_ZN5eastl19compressed_pair_impIPi15MallocAllocatorLi0EE5firstEv(ptr noundef nonnull align 8 dereferenceable(24) %this1)
  ret ptr %call
}

; Function Attrs: mustprogress uwtable
define linkonce_odr dso_local noundef nonnull align 8 dereferenceable(16) ptr @_ZN5eastl15compressed_pairIPi15MallocAllocatorE6secondEv(ptr noundef nonnull align 8 dereferenceable(24) %this) #0 comdat align 2 {
entry:
  %this.addr = alloca ptr, align 8
  store ptr %this, ptr %this.addr, align 8
  %this1 = load ptr, ptr %this.addr, align 8
  %call = call noundef nonnull align 8 dereferenceable(16) ptr @_ZN5eastl19compressed_pair_impIPi15MallocAllocatorLi0EE6secondEv(ptr noundef nonnull align 8 dereferenceable(24) %this1)
  ret ptr %call
}

; Function Attrs: mustprogress nounwind uwtable
define linkonce_odr dso_local noundef nonnull align 8 dereferenceable(8) ptr @_ZN5eastl10VectorBaseIi15MallocAllocatorE19internalCapacityPtrEv(ptr noundef nonnull align 8 dereferenceable(40) %this) #1 comdat align 2 personality ptr @__gxx_personality_v0 {
entry:
  %this.addr = alloca ptr, align 8
  store ptr %this, ptr %this.addr, align 8
  %this1 = load ptr, ptr %this.addr, align 8
  %mCapacityAllocator = getelementptr inbounds %"struct.eastl::VectorBase.203", ptr %this1, i32 0, i32 2
  %call = invoke noundef nonnull align 8 dereferenceable(8) ptr @_ZN5eastl15compressed_pairIPi15MallocAllocatorE5firstEv(ptr noundef nonnull align 8 dereferenceable(24) %mCapacityAllocator)
          to label %invoke.cont unwind label %terminate.lpad

invoke.cont:                                      ; preds = %entry
  ret ptr %call

terminate.lpad:                                   ; preds = %entry
  %0 = landingpad { ptr, i32 }
          catch ptr null
  %1 = extractvalue { ptr, i32 } %0, 0
  call void @__clang_call_terminate(ptr %1) #11
  unreachable
}

; Function Attrs: mustprogress nounwind uwtable
define linkonce_odr dso_local noundef nonnull align 8 dereferenceable(16) ptr @_ZN5eastl10VectorBaseIi15MallocAllocatorE17internalAllocatorEv(ptr noundef nonnull align 8 dereferenceable(40) %this) #1 comdat align 2 personality ptr @__gxx_personality_v0 {
entry:
  %this.addr = alloca ptr, align 8
  store ptr %this, ptr %this.addr, align 8
  %this1 = load ptr, ptr %this.addr, align 8
  %mCapacityAllocator = getelementptr inbounds %"struct.eastl::VectorBase.203", ptr %this1, i32 0, i32 2
  %call = invoke noundef nonnull align 8 dereferenceable(16) ptr @_ZN5eastl15compressed_pairIPi15MallocAllocatorE6secondEv(ptr noundef nonnull align 8 dereferenceable(24) %mCapacityAllocator)
          to label %invoke.cont unwind label %terminate.lpad

invoke.cont:                                      ; preds = %entry
  ret ptr %call

terminate.lpad:                                   ; preds = %entry
  %0 = landingpad { ptr, i32 }
          catch ptr null
  %1 = extractvalue { ptr, i32 } %0, 0
  call void @__clang_call_terminate(ptr %1) #11
  unreachable
}

; Function Attrs: mustprogress nounwind uwtable
define linkonce_odr dso_local void @_ZN5eastl13destruct_implIPiEEvT_S2_NS_17integral_constantIbLb1EEE(ptr noundef %0, ptr noundef %1) #1 comdat {
entry:
  %.addr = alloca ptr, align 8
  %.addr1 = alloca ptr, align 8
  store ptr %0, ptr %.addr, align 8
  store ptr %1, ptr %.addr1, align 8
  ret void
}

; Function Attrs: mustprogress nounwind uwtable
define linkonce_odr dso_local void @_ZN5eastl10VectorBaseIi15MallocAllocatorED2Ev(ptr noundef nonnull align 8 dereferenceable(40) %this) unnamed_addr #1 comdat align 2 personality ptr @__gxx_personality_v0 {
entry:
  %this.addr = alloca ptr, align 8
  store ptr %this, ptr %this.addr, align 8
  %this1 = load ptr, ptr %this.addr, align 8
  %mpBegin = getelementptr inbounds %"struct.eastl::VectorBase.203", ptr %this1, i32 0, i32 0
  %0 = load ptr, ptr %mpBegin, align 8
  %tobool = icmp ne ptr %0, null
  br i1 %tobool, label %if.then, label %if.end

if.then:                                          ; preds = %entry
  %call = call noundef nonnull align 8 dereferenceable(16) ptr @_ZN5eastl10VectorBaseIi15MallocAllocatorE17internalAllocatorEv(ptr noundef nonnull align 8 dereferenceable(40) %this1) #10
  %mpBegin2 = getelementptr inbounds %"struct.eastl::VectorBase.203", ptr %this1, i32 0, i32 0
  %1 = load ptr, ptr %mpBegin2, align 8
  %call3 = call noundef nonnull align 8 dereferenceable(8) ptr @_ZN5eastl10VectorBaseIi15MallocAllocatorE19internalCapacityPtrEv(ptr noundef nonnull align 8 dereferenceable(40) %this1) #10
  %2 = load ptr, ptr %call3, align 8
  %mpBegin4 = getelementptr inbounds %"struct.eastl::VectorBase.203", ptr %this1, i32 0, i32 0
  %3 = load ptr, ptr %mpBegin4, align 8
  %sub.ptr.lhs.cast = ptrtoint ptr %2 to i64
  %sub.ptr.rhs.cast = ptrtoint ptr %3 to i64
  %sub.ptr.sub = sub i64 %sub.ptr.lhs.cast, %sub.ptr.rhs.cast
  %sub.ptr.div = sdiv exact i64 %sub.ptr.sub, 4
  %mul = mul i64 %sub.ptr.div, 4
  invoke void @_ZN15MallocAllocator10deallocateEPvm(ptr noundef nonnull align 8 dereferenceable(16) %call, ptr noundef %1, i64 noundef %mul)
          to label %invoke.cont unwind label %terminate.lpad

invoke.cont:                                      ; preds = %if.then
  br label %if.end

if.end:                                           ; preds = %invoke.cont, %entry
  ret void

terminate.lpad:                                   ; preds = %if.then
  %4 = landingpad { ptr, i32 }
          catch ptr null
  %5 = extractvalue { ptr, i32 } %4, 0
  call void @__clang_call_terminate(ptr %5) #11
  unreachable
}

; Function Attrs: mustprogress uwtable
define linkonce_odr dso_local void @_ZN5eastl8destructIPiEEvT_S2_(ptr noundef %first, ptr noundef %last) #0 comdat {
entry:
  %first.addr = alloca ptr, align 8
  %last.addr = alloca ptr, align 8
  store ptr %first, ptr %first.addr, align 8
  store ptr %last, ptr %last.addr, align 8
  %0 = load ptr, ptr %first.addr, align 8
  %1 = load ptr, ptr %last.addr, align 8
  call void @_ZN5eastl13destruct_implIPiEEvT_S2_NS_17integral_constantIbLb1EEE(ptr noundef %0, ptr noundef %1)
  ret void
}

; Function Attrs: mustprogress nounwind uwtable
define linkonce_odr dso_local void @_ZN5eastl6vectorIi15MallocAllocatorED2Ev(ptr noundef nonnull align 8 dereferenceable(40) %this) unnamed_addr #1 comdat align 2 personality ptr @__gxx_personality_v0 {
entry:
  %this.addr = alloca ptr, align 8
  store ptr %this, ptr %this.addr, align 8
  %this1 = load ptr, ptr %this.addr, align 8
  %mpBegin = getelementptr inbounds %"struct.eastl::VectorBase.203", ptr %this1, i32 0, i32 0
  %0 = load ptr, ptr %mpBegin, align 8
  %mpEnd = getelementptr inbounds %"struct.eastl::VectorBase.203", ptr %this1, i32 0, i32 1
  %1 = load ptr, ptr %mpEnd, align 8
  invoke void @_ZN5eastl8destructIPiEEvT_S2_(ptr noundef %0, ptr noundef %1)
          to label %invoke.cont unwind label %terminate.lpad

invoke.cont:                                      ; preds = %entry
  call void @_ZN5eastl10VectorBaseIi15MallocAllocatorED2Ev(ptr noundef nonnull align 8 dereferenceable(40) %this1) #10
  ret void

terminate.lpad:                                   ; preds = %entry
  %2 = landingpad { ptr, i32 }
          catch ptr null
  %3 = extractvalue { ptr, i32 } %2, 0
  call void @__clang_call_terminate(ptr %3) #11
  unreachable
}

; Function Attrs: mustprogress nounwind uwtable
define internal void @_ZZ14TestRingBuffervEN12PaddedVectorD2Ev(ptr noundef nonnull align 8 dereferenceable(4040) %this) unnamed_addr #1 align 2 {
entry:
  %this.addr = alloca ptr, align 8
  store ptr %this, ptr %this.addr, align 8
  %this1 = load ptr, ptr %this.addr, align 8
  call void @_ZN5eastl6vectorIi15MallocAllocatorED2Ev(ptr noundef nonnull align 8 dereferenceable(40) %this1) #10
  ret void
}

; Function Attrs: mustprogress nounwind uwtable
define internal void @_ZN5eastl18ContainerTemporaryIZ14TestRingBuffervE12PaddedVectorLb1EED2Ev(ptr noundef nonnull align 8 dereferenceable(16) %this) unnamed_addr #1 align 2 personality ptr @__gxx_personality_v0 {
entry:
  %this.addr = alloca ptr, align 8
  store ptr %this, ptr %this.addr, align 8
  %this1 = load ptr, ptr %this.addr, align 8
  %mContainer = getelementptr inbounds %"struct.eastl::ContainerTemporary.280", ptr %this1, i32 0, i32 1
  %0 = load ptr, ptr %mContainer, align 8
  call void @_ZZ14TestRingBuffervEN12PaddedVectorD2Ev(ptr noundef nonnull align 8 dereferenceable(4040) %0) #10
  %mAllocator = getelementptr inbounds %"struct.eastl::ContainerTemporary.280", ptr %this1, i32 0, i32 0
  %1 = load ptr, ptr %mAllocator, align 8
  %mContainer2 = getelementptr inbounds %"struct.eastl::ContainerTemporary.280", ptr %this1, i32 0, i32 1
  %2 = load ptr, ptr %mContainer2, align 8
  invoke void @_ZN15MallocAllocator10deallocateEPvm(ptr noundef nonnull align 8 dereferenceable(16) %1, ptr noundef %2, i64 noundef 4040)
          to label %invoke.cont unwind label %terminate.lpad

invoke.cont:                                      ; preds = %entry
  ret void

terminate.lpad:                                   ; preds = %entry
  %3 = landingpad { ptr, i32 }
          catch ptr null
  %4 = extractvalue { ptr, i32 } %3, 0
  call void @__clang_call_terminate(ptr %4) #11
  unreachable
}