; Function Attrs: mustprogress nounwind uwtable
define internal fastcc void @_ZN5eastl18ContainerTemporaryIZ14TestRingBuffervE12PaddedVectorLb1EED2Ev(ptr nocapture noundef nonnull readonly align 8 dereferenceable(16) %this) unnamed_addr #1 align 2 personality ptr @__gxx_personality_v0 {
entry:
  %mContainer = getelementptr inbounds i8, ptr %this, i64 8
  %0 = load ptr, ptr %mContainer, align 8
  %1 = load ptr, ptr %0, align 8
  %tobool.not.i.i.i = icmp eq ptr %1, null
  br i1 %tobool.not.i.i.i, label %_ZZ14TestRingBuffervEN12PaddedVectorD2Ev.exit, label %if.then.i.i.i

if.then.i.i.i:                                    ; preds = %entry
  %mSecond.i.i.i.i.i.i = getelementptr inbounds i8, ptr %0, i64 24
  %mCapacityAllocator.i.i.i.i = getelementptr inbounds i8, ptr %0, i64 16
  %2 = load ptr, ptr %mCapacityAllocator.i.i.i.i, align 8
  %sub.ptr.lhs.cast.i.i.i = ptrtoint ptr %2 to i64
  %sub.ptr.rhs.cast.i.i.i = ptrtoint ptr %1 to i64
  %sub.ptr.sub.i.i.i = sub i64 %sub.ptr.lhs.cast.i.i.i, %sub.ptr.rhs.cast.i.i.i
  invoke void @_ZN15MallocAllocator10deallocateEPvm(ptr noundef nonnull align 8 dereferenceable(16) %mSecond.i.i.i.i.i.i, ptr noundef nonnull %1, i64 noundef %sub.ptr.sub.i.i.i)
          to label %if.then.i.i.i._ZZ14TestRingBuffervEN12PaddedVectorD2Ev.exit_crit_edge unwind label %terminate.lpad.i.i.i

if.then.i.i.i._ZZ14TestRingBuffervEN12PaddedVectorD2Ev.exit_crit_edge: ; preds = %if.then.i.i.i
  %.pre = load ptr, ptr %mContainer, align 8
  br label %_ZZ14TestRingBuffervEN12PaddedVectorD2Ev.exit

terminate.lpad.i.i.i:                             ; preds = %if.then.i.i.i
  %3 = landingpad { ptr, i32 }
          catch ptr null
  %4 = extractvalue { ptr, i32 } %3, 0
  tail call void @__clang_call_terminate(ptr %4) #15
  unreachable

_ZZ14TestRingBuffervEN12PaddedVectorD2Ev.exit:    ; preds = %if.then.i.i.i._ZZ14TestRingBuffervEN12PaddedVectorD2Ev.exit_crit_edge, %entry
  %5 = phi ptr [ %.pre, %if.then.i.i.i._ZZ14TestRingBuffervEN12PaddedVectorD2Ev.exit_crit_edge ], [ %0, %entry ]
  %6 = load ptr, ptr %this, align 8
  invoke void @_ZN15MallocAllocator10deallocateEPvm(ptr noundef nonnull align 8 dereferenceable(16) %6, ptr noundef %5, i64 noundef 4040)
          to label %invoke.cont unwind label %terminate.lpad

invoke.cont:                                      ; preds = %_ZZ14TestRingBuffervEN12PaddedVectorD2Ev.exit
  ret void

terminate.lpad:                                   ; preds = %_ZZ14TestRingBuffervEN12PaddedVectorD2Ev.exit
  %7 = landingpad { ptr, i32 }
          catch ptr null
  %8 = extractvalue { ptr, i32 } %7, 0
  tail call void @__clang_call_terminate(ptr %8) #15
  unreachable
}